; Function Attrs: mustprogress uwtable
define noundef ptr @_ZN5arrow7compute19GetFunctionRegistryEv() local_unnamed_addr #1 personality ptr @__gxx_personality_v0 {
  %1 = load atomic i8, ptr @_ZGVZN5arrow7compute19GetFunctionRegistryEvE10g_registry acquire, align 8
  %2 = icmp eq i8 %1, 0
  br i1 %2, label %3, label %8, !prof !153

3:                                                ; preds = %0
  %4 = tail call i32 @__cxa_guard_acquire(ptr nonnull @_ZGVZN5arrow7compute19GetFunctionRegistryEvE10g_registry) #26
  %.not = icmp eq i32 %4, 0
  br i1 %.not, label %8, label %5

5:                                                ; preds = %3
  invoke fastcc void @_ZN5arrow7compute8internalL21CreateBuiltInRegistryEv()
          to label %6 unwind label %10

6:                                                ; preds = %5
  %7 = tail call i32 @__cxa_atexit(ptr nonnull @_ZNSt10unique_ptrIN5arrow7compute16FunctionRegistryESt14default_deleteIS2_EED2Ev, ptr nonnull @_ZZN5arrow7compute19GetFunctionRegistryEvE10g_registry, ptr nonnull @__dso_handle) #26
  tail call void @__cxa_guard_release(ptr nonnull @_ZGVZN5arrow7compute19GetFunctionRegistryEvE10g_registry) #26
  br label %8

8:                                                ; preds = %6, %3, %0
  %9 = load ptr, ptr @_ZZN5arrow7compute19GetFunctionRegistryEvE10g_registry, align 8, !tbaa !32
  ret ptr %9

10:                                               ; preds = %5
  %11 = landingpad { ptr, i32 }
          cleanup
  tail call void @__cxa_guard_abort(ptr nonnull @_ZGVZN5arrow7compute19GetFunctionRegistryEvE10g_registry) #26
  resume { ptr, i32 } %11
}